#include <math.h>
#include <stdio.h>
#include <stdlib.h>
#include <string.h>

int f(signed n)
{
	int c;
	if(n==0||n==-0)  c=0;
	if((n>=1&&n<=9)||(n>=-9&&n<=-1))   c=abs(n);
	if((n>=10&&n<=99)||(n>=-99&&n<=-10))    c=(abs(n)%10)*10+abs(n)/10;
	if((n>=100&&n<=999)||(n>=-999&&n<=-100))  c=((abs(n)%100)%10)*100+((abs(n)%100)/10)*10+abs(n)/100;
	if((n>=1000&&n<=9999)||(n>=-9999&&n<=-1000))  c=(((abs(n)%1000)%100)%10)*1000+(((abs(n)%1000)%100)/10)*100+((abs(n)%1000)/100)*10+abs(n)/1000;
	if((n>=10000&&n<=99999)||(n>=-99999&&n<=-10000))  c=((((abs(n)%10000)%1000)%100)%10)*10000+((((abs(n)%10000)%1000)%100)/10)*1000+(((abs(n)%10000)%1000)/100)*100+((abs(n)%10000)/1000)*10+abs(n)/10000;
	if(n<0) c=-c;
	return(c);
}
void main()
{
	signed int n;
	int i;
	for(i=0;i<6;i++)
	{
		scanf("%d",&n);
		printf("%d\n",f(n));
	}
}